; Function Attrs: mustprogress nounwind uwtable
define hidden noundef ptr @_ZN11ConvI2FNode8IdentityEP8PhaseGVN(ptr noundef nonnull readonly align 8 dereferenceable(64) %0, ptr nocapture noundef readnone %1) unnamed_addr #1 align 2 {
  %3 = getelementptr inbounds i8, ptr %0, i64 8
  %4 = load ptr, ptr %3, align 8
  %5 = getelementptr inbounds i8, ptr %4, i64 8
  %6 = load ptr, ptr %5, align 8
  %7 = load ptr, ptr %6, align 8
  %8 = load ptr, ptr %7, align 8
  %9 = tail call noundef i32 %8(ptr noundef nonnull align 8 dereferenceable(52) %6) #8
  %10 = icmp eq i32 %9, 131
  br i1 %10, label %11, label %31

11:                                               ; preds = %2
  %12 = load ptr, ptr %3, align 8
  %13 = getelementptr inbounds i8, ptr %12, i64 8
  %14 = load ptr, ptr %13, align 8
  %15 = getelementptr inbounds i8, ptr %14, i64 8
  %16 = load ptr, ptr %15, align 8
  %17 = getelementptr inbounds i8, ptr %16, i64 8
  %18 = load ptr, ptr %17, align 8
  %19 = load ptr, ptr %18, align 8
  %20 = load ptr, ptr %19, align 8
  %21 = tail call noundef i32 %20(ptr noundef nonnull align 8 dereferenceable(52) %18) #8
  %22 = icmp eq i32 %21, 134
  br i1 %22, label %23, label %31

23:                                               ; preds = %11
  %24 = load ptr, ptr %3, align 8
  %25 = getelementptr inbounds i8, ptr %24, i64 8
  %26 = load ptr, ptr %25, align 8
  %27 = getelementptr inbounds i8, ptr %26, i64 8
  %28 = load ptr, ptr %27, align 8
  %29 = getelementptr inbounds i8, ptr %28, i64 8
  %30 = load ptr, ptr %29, align 8
  br label %31

31:                                               ; preds = %2, %11, %23
  %.0 = phi ptr [ %30, %23 ], [ %0, %11 ], [ %0, %2 ]
  ret ptr %.0
}